; Function Attrs: null_pointer_is_valid sspstrong uwtable
define internal i32 @dissect_ranap_PLMNidentity(ptr noundef %0, i32 noundef %1, ptr noundef %2, ptr noundef %3, i32 noundef %4) #0 {
  %6 = alloca ptr, align 8
  call void @llvm.lifetime.start.p0(i64 8, ptr nonnull %6) #4
  store ptr null, ptr %6, align 8
  %7 = getelementptr i8, ptr %2, i64 16
  %.val = load ptr, ptr %7, align 8
  %8 = getelementptr inbounds nuw i8, ptr %.val, i64 408
  %9 = load ptr, ptr %8, align 8
  %10 = load i32, ptr @proto_ranap, align 4
  %11 = tail call ptr @p_get_proto_data(ptr noundef %9, ptr noundef %.val, i32 noundef %10, i32 noundef 0)
  %12 = icmp eq ptr %11, null
  br i1 %12, label %13, label %ranap_get_private_data.exit

13:                                               ; preds = %5
  %14 = load ptr, ptr %8, align 8
  %15 = tail call noalias dereferenceable_or_null(12) ptr @wmem_alloc0(ptr noundef %14, i64 noundef 12) #5
  %16 = load ptr, ptr %8, align 8
  %17 = load i32, ptr @proto_ranap, align 4
  tail call void @p_add_proto_data(ptr noundef %16, ptr noundef %.val, i32 noundef %17, i32 noundef 0, ptr noundef %15)
  br label %ranap_get_private_data.exit

ranap_get_private_data.exit:                      ; preds = %5, %13
  %.0.i = phi ptr [ %15, %13 ], [ %11, %5 ]
  %18 = getelementptr inbounds nuw i8, ptr %.0.i, i64 8
  %19 = load i32, ptr %18, align 4
  store i32 0, ptr %18, align 4
  %20 = call i32 @dissect_per_octet_string(ptr noundef %0, i32 noundef %1, ptr noundef %2, ptr noundef %3, i32 noundef %4, i32 noundef 3, i32 noundef 3, i1 noundef zeroext false, ptr noundef nonnull %6)
  %21 = load ptr, ptr %6, align 8
  %.not = icmp eq ptr %21, null
  br i1 %.not, label %25, label %22

22:                                               ; preds = %ranap_get_private_data.exit
  %23 = load ptr, ptr %7, align 8
  %24 = call i32 @dissect_e212_mcc_mnc(ptr noundef nonnull %21, ptr noundef %23, ptr noundef %3, i32 noundef 0, i32 noundef %19, i1 noundef zeroext false)
  br label %25

25:                                               ; preds = %ranap_get_private_data.exit, %22
  call void @llvm.lifetime.end.p0(i64 8, ptr nonnull %6) #4
  ret i32 %20
}